target datalayout = "e-m:e-p270:32:32-p271:32:32-p272:64:64-i64:64-i128:128-f80:128-n8:16:32:64-S128"
target triple = "x86_64-pc-linux-gnu"

%struct.if_filter_opt_s = type { i32, %union.anon.3 }
%union.anon.3 = type { %struct.wtap_bpf_insns }
%struct.wtap_bpf_insns = type { i32, ptr }

; Function Attrs: nounwind uwtable
define internal i32 @pcapng_compute_if_filter_option_size(ptr noundef %0) #0 {
  %2 = alloca ptr, align 8
  %3 = alloca ptr, align 8
  %4 = alloca i32, align 4
  %5 = alloca i32, align 4
  store ptr %0, ptr %2, align 8
  %6 = load ptr, ptr %2, align 8
  store ptr %6, ptr %3, align 8
  %7 = load ptr, ptr %3, align 8
  %8 = getelementptr inbounds %struct.if_filter_opt_s, ptr %7, i32 0, i32 0
  %9 = load i32, ptr %8, align 8
  %10 = icmp eq i32 %9, 0
  br i1 %10, label %11, label %19

11:                                               ; preds = %1
  %12 = load ptr, ptr %3, align 8
  %13 = getelementptr inbounds %struct.if_filter_opt_s, ptr %12, i32 0, i32 1
  %14 = load ptr, ptr %13, align 8
  %15 = call i64 @strlen(ptr noundef %14) #12
  %16 = add i64 %15, 1
  %17 = trunc i64 %16 to i32
  %18 = and i32 %17, 65535
  store i32 %18, ptr %4, align 4
  br label %34

19:                                               ; preds = %1
  %20 = load ptr, ptr %3, align 8
  %21 = getelementptr inbounds %struct.if_filter_opt_s, ptr %20, i32 0, i32 0
  %22 = load i32, ptr %21, align 8
  %23 = icmp eq i32 %22, 1
  br i1 %23, label %24, label %32

24:                                               ; preds = %19
  %25 = load ptr, ptr %3, align 8
  %26 = getelementptr inbounds %struct.if_filter_opt_s, ptr %25, i32 0, i32 1
  %27 = getelementptr inbounds %struct.wtap_bpf_insns, ptr %26, i32 0, i32 0
  %28 = load i32, ptr %27, align 8
  %29 = mul i32 %28, 8
  %30 = add i32 %29, 1
  %31 = and i32 %30, 65535
  store i32 %31, ptr %4, align 4
  br label %33

32:                                               ; preds = %19
  store i32 0, ptr %4, align 4
  br label %33

33:                                               ; preds = %32, %24
  br label %34

34:                                               ; preds = %33, %11
  %35 = load i32, ptr %4, align 4
  %36 = urem i32 %35, 4
  %37 = icmp ne i32 %36, 0
  br i1 %37, label %38, label %42

38:                                               ; preds = %34
  %39 = load i32, ptr %4, align 4
  %40 = urem i32 %39, 4
  %41 = sub i32 4, %40
  store i32 %41, ptr %5, align 4
  br label %43

42:                                               ; preds = %34
  store i32 0, ptr %5, align 4
  br label %43

43:                                               ; preds = %42, %38
  %44 = load i32, ptr %5, align 4
  %45 = load i32, ptr %4, align 4
  %46 = add i32 %45, %44
  store i32 %46, ptr %4, align 4
  %47 = load i32, ptr %4, align 4
  ret i32 %47
}

; Function Attrs: nounwind uwtable
define internal i32 @pcapng_compute_string_option_size(ptr noundef %0) #0 {
  %2 = alloca ptr, align 8
  %3 = alloca i32, align 4
  %4 = alloca i32, align 4
  store ptr %0, ptr %2, align 8
  store i32 0, ptr %3, align 4
  %5 = load ptr, ptr %2, align 8
  %6 = load ptr, ptr %5, align 8
  %7 = call i64 @strlen(ptr noundef %6) #12
  %8 = trunc i64 %7 to i32
  %9 = and i32 %8, 65535
  store i32 %9, ptr %3, align 4
  %10 = load i32, ptr %3, align 4
  %11 = urem i32 %10, 4
  %12 = icmp ne i32 %11, 0
  br i1 %12, label %13, label %17

13:                                               ; preds = %1
  %14 = load i32, ptr %3, align 4
  %15 = urem i32 %14, 4
  %16 = sub i32 4, %15
  store i32 %16, ptr %4, align 4
  br label %18

17:                                               ; preds = %1
  store i32 0, ptr %4, align 4
  br label %18

18:                                               ; preds = %17, %13
  %19 = load i32, ptr %4, align 4
  %20 = load i32, ptr %3, align 4
  %21 = add i32 %20, %19
  store i32 %21, ptr %3, align 4
  %22 = load i32, ptr %3, align 4
  ret i32 %22
}

; Function Attrs: nounwind uwtable
define internal i32 @compute_idb_option_size(ptr noundef %0, i32 noundef %1, i32 noundef %2, ptr noundef %3) #0 {
  %5 = alloca ptr, align 8
  %6 = alloca i32, align 4
  %7 = alloca i32, align 4
  %8 = alloca ptr, align 8
  %9 = alloca i32, align 4
  store ptr %0, ptr %5, align 8
  store i32 %1, ptr %6, align 4
  store i32 %2, ptr %7, align 4
  store ptr %3, ptr %8, align 8
  %10 = load i32, ptr %6, align 4
  switch i32 %10, label %21 [
    i32 2, label %11
    i32 3, label %11
    i32 12, label %11
    i32 15, label %11
    i32 8, label %14
    i32 9, label %15
    i32 11, label %16
    i32 13, label %19
    i32 14, label %20
  ]

11:                                               ; preds = %4, %4, %4, %4
  %12 = load ptr, ptr %8, align 8
  %13 = call i32 @pcapng_compute_string_option_size(ptr noundef %12)
  store i32 %13, ptr %9, align 4
  br label %22

14:                                               ; preds = %4
  store i32 8, ptr %9, align 4
  br label %22

15:                                               ; preds = %4
  store i32 1, ptr %9, align 4
  br label %22

16:                                               ; preds = %4
  %17 = load ptr, ptr %8, align 8
  %18 = call i32 @pcapng_compute_if_filter_option_size(ptr noundef %17)
  store i32 %18, ptr %9, align 4
  br label %22

19:                                               ; preds = %4
  store i32 1, ptr %9, align 4
  br label %22

20:                                               ; preds = %4
  store i32 0, ptr %9, align 4
  br label %22

21:                                               ; preds = %4
  store i32 0, ptr %9, align 4
  br label %22

22:                                               ; preds = %21, %20, %19, %16, %15, %14, %11
  %23 = load i32, ptr %9, align 4
  ret i32 %23
}