; Function Attrs: mustprogress nofree nounwind willreturn memory(read, inaccessiblemem: none) uwtable
define internal range(i32 0, 65539) i32 @compute_idb_option_size(ptr readnone captures(none) %0, i32 noundef %1, i32 %2, ptr noundef readonly captures(none) %3) #9 {
  switch i32 %1, label %31 [
    i32 2, label %5
    i32 3, label %5
    i32 12, label %5
    i32 15, label %5
    i32 8, label %32
    i32 9, label %12
    i32 11, label %13
    i32 13, label %12
  ]

5:                                                ; preds = %4, %4, %4, %4
  %.val = load ptr, ptr %3, align 8
  %6 = tail call i64 @strlen(ptr noundef nonnull readonly dereferenceable(1) %.val) #19
  %7 = trunc i64 %6 to i32
  %8 = and i32 %7, 3
  %.not.i = icmp eq i32 %8, 0
  %9 = sub nuw nsw i32 4, %8
  %.0.i = select i1 %.not.i, i32 0, i32 %9
  %10 = and i32 %7, 65535
  %11 = add nuw nsw i32 %.0.i, %10
  br label %32

12:                                               ; preds = %4, %4
  br label %32

13:                                               ; preds = %4
  %14 = load i32, ptr %3, align 8
  switch i32 %14, label %pcapng_compute_if_filter_option_size.exit [
    i32 0, label %15
    i32 1, label %22
  ]

15:                                               ; preds = %13
  %16 = getelementptr inbounds nuw i8, ptr %3, i64 8
  %17 = load ptr, ptr %16, align 8
  %18 = tail call i64 @strlen(ptr noundef nonnull dereferenceable(1) %17) #19
  %19 = trunc i64 %18 to i32
  %20 = add i32 %19, 1
  %21 = and i32 %20, 65535
  br label %pcapng_compute_if_filter_option_size.exit

22:                                               ; preds = %13
  %23 = getelementptr inbounds nuw i8, ptr %3, i64 8
  %24 = load i32, ptr %23, align 8
  %25 = shl i32 %24, 3
  %26 = and i32 %25, 65528
  %27 = or disjoint i32 %26, 1
  br label %pcapng_compute_if_filter_option_size.exit

pcapng_compute_if_filter_option_size.exit:        ; preds = %13, %15, %22
  %.09.i = phi i32 [ %21, %15 ], [ %27, %22 ], [ 0, %13 ]
  %28 = and i32 %.09.i, 3
  %.not.i3 = icmp eq i32 %28, 0
  %29 = sub nuw nsw i32 4, %28
  %.0.i4 = select i1 %.not.i3, i32 0, i32 %29
  %30 = add nuw nsw i32 %.0.i4, %.09.i
  br label %32

31:                                               ; preds = %4
  br label %32

32:                                               ; preds = %4, %31, %pcapng_compute_if_filter_option_size.exit, %12, %5
  %.0 = phi i32 [ 0, %31 ], [ %30, %pcapng_compute_if_filter_option_size.exit ], [ 1, %12 ], [ %11, %5 ], [ %1, %4 ]
  ret i32 %.0
}